target datalayout = "e-m:e-p270:32:32-p271:32:32-p272:64:64-i64:64-i128:128-f80:128-n8:16:32:64-S128"
target triple = "x86_64-pc-linux-gnu"

; Function Attrs: nounwind null_pointer_is_valid sspstrong uwtable
define hidden i32 @strhash(ptr noundef %0) #2 {
  %2 = alloca ptr, align 8
  %3 = alloca i32, align 4
  store ptr %0, ptr %2, align 8
  call void @llvm.lifetime.start.p0(i64 4, ptr %3) #18
  store i32 0, ptr %3, align 4
  br label %4

4:                                                ; preds = %8, %1
  %5 = load ptr, ptr %2, align 8
  %6 = load i8, ptr %5, align 1
  %7 = icmp ne i8 %6, 0
  br i1 %7, label %8, label %16

8:                                                ; preds = %4
  %9 = load i32, ptr %3, align 4
  %10 = mul i32 %9, 13
  %11 = load ptr, ptr %2, align 8
  %12 = getelementptr i8, ptr %11, i32 1
  store ptr %12, ptr %2, align 8
  %13 = load i8, ptr %11, align 1
  %14 = sext i8 %13 to i32
  %15 = add i32 %10, %14
  store i32 %15, ptr %3, align 4
  br label %4, !llvm.loop !232

16:                                               ; preds = %4
  %17 = load i32, ptr %3, align 4
  call void @llvm.lifetime.end.p0(i64 4, ptr %3) #18
  ret i32 %17
}