; Function Attrs: nofree norecurse nosync nounwind null_pointer_is_valid sspstrong memory(argmem: read) uwtable
define hidden i32 @strhash(ptr noundef readonly captures(none) %0) local_unnamed_addr #34 {
  %2 = load i8, ptr %0, align 1
  %.not5 = icmp eq i8 %2, 0
  br i1 %.not5, label %._crit_edge, label %.lr.ph

.lr.ph:                                           ; preds = %1, %.lr.ph
  %3 = phi i8 [ %8, %.lr.ph ], [ %2, %1 ]
  %.07 = phi i32 [ %7, %.lr.ph ], [ 0, %1 ]
  %.036 = phi ptr [ %5, %.lr.ph ], [ %0, %1 ]
  %4 = mul i32 %.07, 13
  %5 = getelementptr i8, ptr %.036, i64 1
  %6 = sext i8 %3 to i32
  %7 = add i32 %4, %6
  %8 = load i8, ptr %5, align 1
  %.not = icmp eq i8 %8, 0
  br i1 %.not, label %._crit_edge, label %.lr.ph, !llvm.loop !33

._crit_edge:                                      ; preds = %.lr.ph, %1
  %.0.lcssa = phi i32 [ 0, %1 ], [ %7, %.lr.ph ]
  ret i32 %.0.lcssa
}